target datalayout = "e-m:e-p270:32:32-p271:32:32-p272:64:64-i64:64-i128:128-f80:128-n8:16:32:64-S128"
target triple = "x86_64-pc-linux-gnu"

%"class.google::protobuf::io::FileInputStream::CopyingFileInputStream" = type <{ %"class.google::protobuf::io::CopyingInputStream", i32, i8, i8, [2 x i8], i32, i8, [3 x i8] }>
%"class.google::protobuf::io::CopyingInputStream" = type { ptr }
%"class.google::protobuf::internal::LogMessage" = type { i32, ptr, i32, %"class.std::__cxx11::basic_string" }
%"class.std::__cxx11::basic_string" = type { %"struct.std::__cxx11::basic_string<char>::_Alloc_hider", i64, %union.anon }
%"struct.std::__cxx11::basic_string<char>::_Alloc_hider" = type { ptr }
%union.anon = type { i64, [8 x i8] }
%"class.google::protobuf::internal::LogFinisher" = type { i8 }

@.str = private unnamed_addr constant [157 x i8] c"generated/home/dtcxzyw/WorkSpace/Projects/compilers/llvm-opt-benchmark/bench/opencv/opencv/3rdparty/protobuf/src/google/protobuf/io/zero_copy_stream_impl.cc\00", align 1
@.str.2 = private unnamed_addr constant [28 x i8] c"CHECK failed: !is_closed_: \00", align 1

; Function Attrs: mustprogress uwtable
define internal noundef i32 @_ZN6google8protobuf2io12_GLOBAL__N_114close_no_eintrEi(i32 noundef %0) #4 {
  %2 = alloca i32, align 4
  %3 = alloca i32, align 4
  store i32 %0, ptr %2, align 4, !tbaa !8
  call void @llvm.lifetime.start.p0(i64 4, ptr %3) #3
  br label %4

4:                                                ; preds = %14, %1
  %5 = load i32, ptr %2, align 4, !tbaa !8
  %6 = call i32 @close(i32 noundef %5)
  store i32 %6, ptr %3, align 4, !tbaa !8
  br label %7

7:                                                ; preds = %4
  %8 = load i32, ptr %3, align 4, !tbaa !8
  %9 = icmp slt i32 %8, 0
  br i1 %9, label %10, label %14

10:                                               ; preds = %7
  %11 = call ptr @__errno_location() #12
  %12 = load i32, ptr %11, align 4, !tbaa !8
  %13 = icmp eq i32 %12, 4
  br label %14

14:                                               ; preds = %10, %7
  %15 = phi i1 [ false, %7 ], [ %13, %10 ]
  br i1 %15, label %4, label %16, !llvm.loop !32

16:                                               ; preds = %14
  %17 = load i32, ptr %3, align 4, !tbaa !8
  call void @llvm.lifetime.end.p0(i64 4, ptr %3) #3
  ret i32 %17
}

; Function Attrs: mustprogress uwtable
define hidden noundef zeroext i1 @_ZN6google8protobuf2io15FileInputStream22CopyingFileInputStream5CloseEv(ptr noundef nonnull align 8 dereferenceable(21) %0) #4 align 2 personality ptr @__gxx_personality_v0 {
  %2 = alloca i1, align 1
  %3 = alloca ptr, align 8
  %4 = alloca %"class.google::protobuf::internal::LogMessage", align 8
  %5 = alloca i1, align 1
  %6 = alloca i1, align 1
  %7 = alloca ptr, align 8
  %8 = alloca i32, align 4
  %9 = alloca %"class.google::protobuf::internal::LogFinisher", align 1
  store ptr %0, ptr %3, align 8, !tbaa !14
  %10 = load ptr, ptr %3, align 8
  %11 = getelementptr inbounds nuw %"class.google::protobuf::io::FileInputStream::CopyingFileInputStream", ptr %10, i32 0, i32 3
  %12 = load i8, ptr %11, align 1, !tbaa !16, !range !20, !noundef !21
  %13 = trunc i8 %12 to i1
  store i1 false, ptr %5, align 1
  store i1 false, ptr %6, align 1
  call void @llvm.lifetime.start.p0(i64 1, ptr %9) #3
  br i1 %13, label %15, label %14

14:                                               ; preds = %1
  br label %19

15:                                               ; preds = %1
  call void @llvm.lifetime.start.p0(i64 56, ptr %4) #3
  store i1 true, ptr %5, align 1
  call void @_ZN6google8protobuf8internal10LogMessageC1ENS0_8LogLevelEPKci(ptr noundef nonnull align 8 dereferenceable(56) %4, i32 noundef 3, ptr noundef @.str, i32 noundef 123)
  store i1 true, ptr %6, align 1
  %16 = invoke noundef nonnull align 8 dereferenceable(56) ptr @_ZN6google8protobuf8internal10LogMessagelsEPKc(ptr noundef nonnull align 8 dereferenceable(56) %4, ptr noundef @.str.2)
          to label %17 unwind label %35

17:                                               ; preds = %15
  invoke void @_ZN6google8protobuf8internal11LogFinisheraSERNS1_10LogMessageE(ptr noundef nonnull align 1 dereferenceable(1) %9, ptr noundef nonnull align 8 dereferenceable(56) %16)
          to label %18 unwind label %39

18:                                               ; preds = %17
  br label %19

19:                                               ; preds = %18, %14
  call void @llvm.lifetime.end.p0(i64 1, ptr %9) #3
  %20 = load i1, ptr %6, align 1
  br i1 %20, label %21, label %22

21:                                               ; preds = %19
  call void @_ZN6google8protobuf8internal10LogMessageD1Ev(ptr noundef nonnull align 8 dereferenceable(56) %4) #3
  br label %22

22:                                               ; preds = %21, %19
  %23 = load i1, ptr %5, align 1
  br i1 %23, label %24, label %25

24:                                               ; preds = %22
  call void @llvm.lifetime.end.p0(i64 56, ptr %4) #3
  br label %25

25:                                               ; preds = %24, %22
  %26 = getelementptr inbounds nuw %"class.google::protobuf::io::FileInputStream::CopyingFileInputStream", ptr %10, i32 0, i32 3
  store i8 1, ptr %26, align 1, !tbaa !16
  %27 = getelementptr inbounds nuw %"class.google::protobuf::io::FileInputStream::CopyingFileInputStream", ptr %10, i32 0, i32 1
  %28 = load i32, ptr %27, align 8, !tbaa !22
  %29 = call noundef i32 @_ZN6google8protobuf2io12_GLOBAL__N_114close_no_eintrEi(i32 noundef %28)
  %30 = icmp ne i32 %29, 0
  br i1 %30, label %31, label %50

31:                                               ; preds = %25
  %32 = call ptr @__errno_location() #12
  %33 = load i32, ptr %32, align 4, !tbaa !8
  %34 = getelementptr inbounds nuw %"class.google::protobuf::io::FileInputStream::CopyingFileInputStream", ptr %10, i32 0, i32 5
  store i32 %33, ptr %34, align 8, !tbaa !23
  store i1 false, ptr %2, align 1
  br label %51

35:                                               ; preds = %15
  %36 = landingpad { ptr, i32 }
          cleanup
  %37 = extractvalue { ptr, i32 } %36, 0
  store ptr %37, ptr %7, align 8
  %38 = extractvalue { ptr, i32 } %36, 1
  store i32 %38, ptr %8, align 4
  br label %43

39:                                               ; preds = %17
  %40 = landingpad { ptr, i32 }
          cleanup
  %41 = extractvalue { ptr, i32 } %40, 0
  store ptr %41, ptr %7, align 8
  %42 = extractvalue { ptr, i32 } %40, 1
  store i32 %42, ptr %8, align 4
  call void @llvm.lifetime.end.p0(i64 1, ptr %9) #3
  br label %43

43:                                               ; preds = %39, %35
  %44 = load i1, ptr %6, align 1
  br i1 %44, label %45, label %46

45:                                               ; preds = %43
  call void @_ZN6google8protobuf8internal10LogMessageD1Ev(ptr noundef nonnull align 8 dereferenceable(56) %4) #3
  br label %46

46:                                               ; preds = %45, %43
  %47 = load i1, ptr %5, align 1
  br i1 %47, label %48, label %49

48:                                               ; preds = %46
  call void @llvm.lifetime.end.p0(i64 56, ptr %4) #3
  br label %49

49:                                               ; preds = %48, %46
  br label %53

50:                                               ; preds = %25
  store i1 true, ptr %2, align 1
  br label %51

51:                                               ; preds = %50, %31
  %52 = load i1, ptr %2, align 1
  ret i1 %52

53:                                               ; preds = %49
  %54 = load ptr, ptr %7, align 8
  %55 = load i32, ptr %8, align 4
  %56 = insertvalue { ptr, i32 } poison, ptr %54, 0
  %57 = insertvalue { ptr, i32 } %56, i32 %55, 1
  resume { ptr, i32 } %57
}