; Function Attrs: mustprogress uwtable
define hidden noundef zeroext i1 @_ZN6google8protobuf2io15FileInputStream22CopyingFileInputStream5CloseEv(ptr noundef nonnull align 8 captures(none) dereferenceable(21) %0) local_unnamed_addr #3 align 2 personality ptr @__gxx_personality_v0 {
  %2 = alloca %"class.google::protobuf::internal::LogMessage", align 8
  %3 = alloca %"class.google::protobuf::internal::LogFinisher", align 1
  %4 = getelementptr inbounds nuw i8, ptr %0, i64 13
  %5 = load i8, ptr %4, align 1, !tbaa !13, !range !16, !noundef !17
  %6 = trunc nuw i8 %5 to i1
  call void @llvm.lifetime.start.p0(i64 1, ptr nonnull %3) #15
  br i1 %6, label %7, label %10

7:                                                ; preds = %1
  call void @llvm.lifetime.start.p0(i64 56, ptr nonnull %2) #15
  call void @_ZN6google8protobuf8internal10LogMessageC1ENS0_8LogLevelEPKci(ptr noundef nonnull align 8 dereferenceable(56) %2, i32 noundef 3, ptr noundef nonnull @.str, i32 noundef 123)
  %8 = invoke noundef nonnull align 8 dereferenceable(56) ptr @_ZN6google8protobuf8internal10LogMessagelsEPKc(ptr noundef nonnull align 8 dereferenceable(56) %2, ptr noundef nonnull @.str.2)
          to label %9 unwind label %23

9:                                                ; preds = %7
  invoke void @_ZN6google8protobuf8internal11LogFinisheraSERNS1_10LogMessageE(ptr noundef nonnull align 1 dereferenceable(1) %3, ptr noundef nonnull align 8 dereferenceable(56) %8)
          to label %11 unwind label %25

10:                                               ; preds = %1
  call void @llvm.lifetime.end.p0(i64 1, ptr nonnull %3) #15
  br label %.critedge13

11:                                               ; preds = %9
  call void @llvm.lifetime.end.p0(i64 1, ptr nonnull %3) #15
  call void @_ZN6google8protobuf8internal10LogMessageD1Ev(ptr noundef nonnull align 8 dereferenceable(56) %2) #15
  call void @llvm.lifetime.end.p0(i64 56, ptr nonnull %2) #15
  br label %.critedge13

.critedge13:                                      ; preds = %10, %11
  store i8 1, ptr %4, align 1, !tbaa !13
  %12 = getelementptr inbounds nuw i8, ptr %0, i64 8
  %13 = load i32, ptr %12, align 8, !tbaa !6
  br label %14

14:                                               ; preds = %17, %.critedge13
  %15 = call i32 @close(i32 noundef %13)
  %16 = icmp slt i32 %15, 0
  br i1 %16, label %17, label %_ZN6google8protobuf2io12_GLOBAL__N_114close_no_eintrEi.exit

17:                                               ; preds = %14
  %18 = tail call ptr @__errno_location() #16
  %19 = load i32, ptr %18, align 4, !tbaa !18
  %20 = icmp eq i32 %19, 4
  br i1 %20, label %14, label %_ZN6google8protobuf2io12_GLOBAL__N_114close_no_eintrEi.exit.thread, !llvm.loop !19

_ZN6google8protobuf2io12_GLOBAL__N_114close_no_eintrEi.exit: ; preds = %14
  %.not = icmp eq i32 %15, 0
  br i1 %.not, label %28, label %_ZN6google8protobuf2io12_GLOBAL__N_114close_no_eintrEi.exit._ZN6google8protobuf2io12_GLOBAL__N_114close_no_eintrEi.exit.thread_crit_edge

_ZN6google8protobuf2io12_GLOBAL__N_114close_no_eintrEi.exit._ZN6google8protobuf2io12_GLOBAL__N_114close_no_eintrEi.exit.thread_crit_edge: ; preds = %_ZN6google8protobuf2io12_GLOBAL__N_114close_no_eintrEi.exit
  %.pre = tail call ptr @__errno_location() #16
  br label %_ZN6google8protobuf2io12_GLOBAL__N_114close_no_eintrEi.exit.thread

_ZN6google8protobuf2io12_GLOBAL__N_114close_no_eintrEi.exit.thread: ; preds = %17, %_ZN6google8protobuf2io12_GLOBAL__N_114close_no_eintrEi.exit._ZN6google8protobuf2io12_GLOBAL__N_114close_no_eintrEi.exit.thread_crit_edge
  %.pre-phi = phi ptr [ %.pre, %_ZN6google8protobuf2io12_GLOBAL__N_114close_no_eintrEi.exit._ZN6google8protobuf2io12_GLOBAL__N_114close_no_eintrEi.exit.thread_crit_edge ], [ %18, %17 ]
  %21 = load i32, ptr %.pre-phi, align 4, !tbaa !18
  %22 = getelementptr inbounds nuw i8, ptr %0, i64 16
  store i32 %21, ptr %22, align 8, !tbaa !14
  br label %28

23:                                               ; preds = %7
  %24 = landingpad { ptr, i32 }
          cleanup
  br label %27

25:                                               ; preds = %9
  %26 = landingpad { ptr, i32 }
          cleanup
  call void @llvm.lifetime.end.p0(i64 1, ptr nonnull %3) #15
  br label %27

27:                                               ; preds = %23, %25
  %.pn = phi { ptr, i32 } [ %26, %25 ], [ %24, %23 ]
  call void @_ZN6google8protobuf8internal10LogMessageD1Ev(ptr noundef nonnull align 8 dereferenceable(56) %2) #15
  call void @llvm.lifetime.end.p0(i64 56, ptr nonnull %2) #15
  resume { ptr, i32 } %.pn

28:                                               ; preds = %_ZN6google8protobuf2io12_GLOBAL__N_114close_no_eintrEi.exit, %_ZN6google8protobuf2io12_GLOBAL__N_114close_no_eintrEi.exit.thread
  %.not16 = phi i1 [ true, %_ZN6google8protobuf2io12_GLOBAL__N_114close_no_eintrEi.exit ], [ false, %_ZN6google8protobuf2io12_GLOBAL__N_114close_no_eintrEi.exit.thread ]
  ret i1 %.not16
}